target datalayout = "e-m:e-p270:32:32-p271:32:32-p272:64:64-i64:64-i128:128-f80:128-n8:16:32:64-S128"
target triple = "x86_64-pc-linux-gnu"

%struct.TupleTableSlot = type { i32, i16, i16, ptr, ptr, ptr, ptr, ptr, %struct.ItemPointerData, i32 }
%struct.ItemPointerData = type { %struct.BlockIdData, i16 }
%struct.BlockIdData = type { i16, i16 }
%struct.FmgrInfo = type { ptr, i32, i16, i8, i8, i8, ptr, ptr, ptr }
%struct.tuplehash_iterator = type { i32, i32, i8 }
%struct.TupleHashTableData = type { ptr, i32, ptr, ptr, ptr, ptr, ptr, ptr, ptr, ptr, ptr, ptr, ptr }
%struct.TupleHashEntryData = type { ptr, ptr, i32, i32 }

@InterruptPending = external global i32, align 4
@CurrentMemoryContext = external global ptr, align 8

; Function Attrs: inlinehint nounwind uwtable
define internal void @slot_getsomeattrs(ptr noundef %0, i32 noundef %1) #5 {
  %3 = alloca ptr, align 8
  %4 = alloca i32, align 4
  store ptr %0, ptr %3, align 8
  store i32 %1, ptr %4, align 4
  %5 = load ptr, ptr %3, align 8
  %6 = getelementptr inbounds nuw %struct.TupleTableSlot, ptr %5, i32 0, i32 2
  %7 = load i16, ptr %6, align 2
  %8 = sext i16 %7 to i32
  %9 = load i32, ptr %4, align 4
  %10 = icmp slt i32 %8, %9
  br i1 %10, label %11, label %14

11:                                               ; preds = %2
  %12 = load ptr, ptr %3, align 8
  %13 = load i32, ptr %4, align 4
  call void @slot_getsomeattrs_int(ptr noundef %12, i32 noundef %13)
  br label %14

14:                                               ; preds = %11, %2
  ret void
}

; Function Attrs: inlinehint nounwind uwtable
define internal zeroext i1 @DatumGetBool(i64 noundef %0) #5 {
  %2 = alloca i64, align 8
  store i64 %0, ptr %2, align 8
  %3 = load i64, ptr %2, align 8
  %4 = icmp ne i64 %3, 0
  ret i1 %4
}

; Function Attrs: inlinehint nounwind uwtable
define internal i64 @slot_getattr(ptr noundef %0, i32 noundef %1, ptr noundef %2) #5 {
  %4 = alloca ptr, align 8
  %5 = alloca i32, align 4
  %6 = alloca ptr, align 8
  store ptr %0, ptr %4, align 8
  store i32 %1, ptr %5, align 4
  store ptr %2, ptr %6, align 8
  %7 = load i32, ptr %5, align 4
  %8 = load ptr, ptr %4, align 8
  %9 = getelementptr inbounds nuw %struct.TupleTableSlot, ptr %8, i32 0, i32 2
  %10 = load i16, ptr %9, align 2
  %11 = sext i16 %10 to i32
  %12 = icmp sgt i32 %7, %11
  br i1 %12, label %13, label %16

13:                                               ; preds = %3
  %14 = load ptr, ptr %4, align 8
  %15 = load i32, ptr %5, align 4
  call void @slot_getsomeattrs(ptr noundef %14, i32 noundef %15)
  br label %16

16:                                               ; preds = %13, %3
  %17 = load ptr, ptr %4, align 8
  %18 = getelementptr inbounds nuw %struct.TupleTableSlot, ptr %17, i32 0, i32 6
  %19 = load ptr, ptr %18, align 8
  %20 = load i32, ptr %5, align 4
  %21 = sub i32 %20, 1
  %22 = sext i32 %21 to i64
  %23 = getelementptr inbounds i8, ptr %19, i64 %22
  %24 = load i8, ptr %23, align 1, !range !4, !noundef !5
  %25 = trunc i8 %24 to i1
  %26 = load ptr, ptr %6, align 8
  %27 = zext i1 %25 to i8
  store i8 %27, ptr %26, align 1
  %28 = load ptr, ptr %4, align 8
  %29 = getelementptr inbounds nuw %struct.TupleTableSlot, ptr %28, i32 0, i32 5
  %30 = load ptr, ptr %29, align 8
  %31 = load i32, ptr %5, align 4
  %32 = sub i32 %31, 1
  %33 = sext i32 %32 to i64
  %34 = getelementptr inbounds i64, ptr %30, i64 %33
  %35 = load i64, ptr %34, align 8
  ret i64 %35
}

; Function Attrs: inlinehint nounwind uwtable
define internal ptr @MemoryContextSwitchTo(ptr noundef %0) #5 {
  %2 = alloca ptr, align 8
  %3 = alloca ptr, align 8
  store ptr %0, ptr %2, align 8
  call void @llvm.lifetime.start.p0(i64 8, ptr %3) #7
  %4 = load ptr, ptr @CurrentMemoryContext, align 8
  store ptr %4, ptr %3, align 8
  %5 = load ptr, ptr %2, align 8
  store ptr %5, ptr @CurrentMemoryContext, align 8
  %6 = load ptr, ptr %3, align 8
  call void @llvm.lifetime.end.p0(i64 8, ptr %3) #7
  ret ptr %6
}

; Function Attrs: nounwind uwtable
define internal zeroext i1 @execTuplesUnequal(ptr noundef %0, ptr noundef %1, i32 noundef %2, ptr noundef %3, ptr noundef %4, ptr noundef %5, ptr noundef %6) #0 {
  %8 = alloca ptr, align 8
  %9 = alloca ptr, align 8
  %10 = alloca i32, align 4
  %11 = alloca ptr, align 8
  %12 = alloca ptr, align 8
  %13 = alloca ptr, align 8
  %14 = alloca ptr, align 8
  %15 = alloca ptr, align 8
  %16 = alloca i8, align 1
  %17 = alloca i32, align 4
  %18 = alloca i16, align 2
  %19 = alloca i64, align 8
  %20 = alloca i64, align 8
  %21 = alloca i8, align 1
  %22 = alloca i8, align 1
  %23 = alloca i32, align 4
  store ptr %0, ptr %8, align 8
  store ptr %1, ptr %9, align 8
  store i32 %2, ptr %10, align 4
  store ptr %3, ptr %11, align 8
  store ptr %4, ptr %12, align 8
  store ptr %5, ptr %13, align 8
  store ptr %6, ptr %14, align 8
  call void @llvm.lifetime.start.p0(i64 8, ptr %15) #7
  call void @llvm.lifetime.start.p0(i64 1, ptr %16) #7
  call void @llvm.lifetime.start.p0(i64 4, ptr %17) #7
  %24 = load ptr, ptr %14, align 8
  call void @MemoryContextReset(ptr noundef %24)
  %25 = load ptr, ptr %14, align 8
  %26 = call ptr @MemoryContextSwitchTo(ptr noundef %25)
  store ptr %26, ptr %15, align 8
  store i8 0, ptr %16, align 1
  %27 = load i32, ptr %10, align 4
  store i32 %27, ptr %17, align 4
  br label %28

28:                                               ; preds = %71, %69, %7
  %29 = load i32, ptr %17, align 4
  %30 = add i32 %29, -1
  store i32 %30, ptr %17, align 4
  %31 = icmp sge i32 %30, 0
  br i1 %31, label %32, label %72

32:                                               ; preds = %28
  call void @llvm.lifetime.start.p0(i64 2, ptr %18) #7
  %33 = load ptr, ptr %11, align 8
  %34 = load i32, ptr %17, align 4
  %35 = sext i32 %34 to i64
  %36 = getelementptr inbounds i16, ptr %33, i64 %35
  %37 = load i16, ptr %36, align 2
  store i16 %37, ptr %18, align 2
  call void @llvm.lifetime.start.p0(i64 8, ptr %19) #7
  call void @llvm.lifetime.start.p0(i64 8, ptr %20) #7
  call void @llvm.lifetime.start.p0(i64 1, ptr %21) #7
  call void @llvm.lifetime.start.p0(i64 1, ptr %22) #7
  %38 = load ptr, ptr %8, align 8
  %39 = load i16, ptr %18, align 2
  %40 = sext i16 %39 to i32
  %41 = call i64 @slot_getattr(ptr noundef %38, i32 noundef %40, ptr noundef %21)
  store i64 %41, ptr %19, align 8
  %42 = load i8, ptr %21, align 1, !range !4, !noundef !5
  %43 = trunc i8 %42 to i1
  br i1 %43, label %44, label %45

44:                                               ; preds = %32
  store i32 3, ptr %23, align 4
  br label %69, !llvm.loop !24

45:                                               ; preds = %32
  %46 = load ptr, ptr %9, align 8
  %47 = load i16, ptr %18, align 2
  %48 = sext i16 %47 to i32
  %49 = call i64 @slot_getattr(ptr noundef %46, i32 noundef %48, ptr noundef %22)
  store i64 %49, ptr %20, align 8
  %50 = load i8, ptr %22, align 1, !range !4, !noundef !5
  %51 = trunc i8 %50 to i1
  br i1 %51, label %52, label %53

52:                                               ; preds = %45
  store i32 3, ptr %23, align 4
  br label %69, !llvm.loop !24

53:                                               ; preds = %45
  %54 = load ptr, ptr %12, align 8
  %55 = load i32, ptr %17, align 4
  %56 = sext i32 %55 to i64
  %57 = getelementptr inbounds %struct.FmgrInfo, ptr %54, i64 %56
  %58 = load ptr, ptr %13, align 8
  %59 = load i32, ptr %17, align 4
  %60 = sext i32 %59 to i64
  %61 = getelementptr inbounds i32, ptr %58, i64 %60
  %62 = load i32, ptr %61, align 4
  %63 = load i64, ptr %19, align 8
  %64 = load i64, ptr %20, align 8
  %65 = call i64 @FunctionCall2Coll(ptr noundef %57, i32 noundef %62, i64 noundef %63, i64 noundef %64)
  %66 = call zeroext i1 @DatumGetBool(i64 noundef %65)
  br i1 %66, label %68, label %67

67:                                               ; preds = %53
  store i8 1, ptr %16, align 1
  store i32 2, ptr %23, align 4
  br label %69

68:                                               ; preds = %53
  store i32 0, ptr %23, align 4
  br label %69

69:                                               ; preds = %68, %67, %52, %44
  call void @llvm.lifetime.end.p0(i64 1, ptr %22) #7
  call void @llvm.lifetime.end.p0(i64 1, ptr %21) #7
  call void @llvm.lifetime.end.p0(i64 8, ptr %20) #7
  call void @llvm.lifetime.end.p0(i64 8, ptr %19) #7
  call void @llvm.lifetime.end.p0(i64 2, ptr %18) #7
  %70 = load i32, ptr %23, align 4
  switch i32 %70, label %77 [
    i32 0, label %71
    i32 3, label %28
    i32 2, label %72
  ]

71:                                               ; preds = %69
  br label %28, !llvm.loop !24

72:                                               ; preds = %69, %28
  %73 = load ptr, ptr %15, align 8
  %74 = call ptr @MemoryContextSwitchTo(ptr noundef %73)
  %75 = load i8, ptr %16, align 1, !range !4, !noundef !5
  %76 = trunc i8 %75 to i1
  store i32 1, ptr %23, align 4
  call void @llvm.lifetime.end.p0(i64 4, ptr %17) #7
  call void @llvm.lifetime.end.p0(i64 1, ptr %16) #7
  call void @llvm.lifetime.end.p0(i64 8, ptr %15) #7
  ret i1 %76

77:                                               ; preds = %69
  unreachable
}

; Function Attrs: nounwind uwtable
define internal zeroext i1 @findPartialMatch(ptr noundef %0, ptr noundef %1, ptr noundef %2) #0 {
  %4 = alloca i1, align 1
  %5 = alloca ptr, align 8
  %6 = alloca ptr, align 8
  %7 = alloca ptr, align 8
  %8 = alloca i32, align 4
  %9 = alloca ptr, align 8
  %10 = alloca %struct.tuplehash_iterator, align 4
  %11 = alloca ptr, align 8
  %12 = alloca i32, align 4
  store ptr %0, ptr %5, align 8
  store ptr %1, ptr %6, align 8
  store ptr %2, ptr %7, align 8
  call void @llvm.lifetime.start.p0(i64 4, ptr %8) #7
  %13 = load ptr, ptr %5, align 8
  %14 = getelementptr inbounds nuw %struct.TupleHashTableData, ptr %13, i32 0, i32 1
  %15 = load i32, ptr %14, align 8
  store i32 %15, ptr %8, align 4
  call void @llvm.lifetime.start.p0(i64 8, ptr %9) #7
  %16 = load ptr, ptr %5, align 8
  %17 = getelementptr inbounds nuw %struct.TupleHashTableData, ptr %16, i32 0, i32 2
  %18 = load ptr, ptr %17, align 8
  store ptr %18, ptr %9, align 8
  call void @llvm.lifetime.start.p0(i64 12, ptr %10) #7
  call void @llvm.lifetime.start.p0(i64 8, ptr %11) #7
  %19 = load ptr, ptr %5, align 8
  %20 = getelementptr inbounds nuw %struct.TupleHashTableData, ptr %19, i32 0, i32 0
  %21 = load ptr, ptr %20, align 8
  call void @tuplehash_start_iterate(ptr noundef %21, ptr noundef %10)
  br label %22

22:                                               ; preds = %62, %3
  %23 = load ptr, ptr %5, align 8
  %24 = getelementptr inbounds nuw %struct.TupleHashTableData, ptr %23, i32 0, i32 0
  %25 = load ptr, ptr %24, align 8
  %26 = call ptr @tuplehash_iterate(ptr noundef %25, ptr noundef %10)
  store ptr %26, ptr %11, align 8
  %27 = icmp ne ptr %26, null
  br i1 %27, label %28, label %63

28:                                               ; preds = %22
  br label %29

29:                                               ; preds = %28
  %30 = load volatile i32, ptr @InterruptPending, align 4
  %31 = icmp ne i32 %30, 0
  %32 = zext i1 %31 to i32
  %33 = sext i32 %32 to i64
  %34 = call i64 @llvm.expect.i64(i64 %33, i64 0)
  %35 = icmp ne i64 %34, 0
  br i1 %35, label %36, label %37

36:                                               ; preds = %29
  call void @ProcessInterrupts()
  br label %37

37:                                               ; preds = %36, %29
  br label %38

38:                                               ; preds = %37
  br label %39

39:                                               ; preds = %38
  %40 = load ptr, ptr %11, align 8
  %41 = getelementptr inbounds nuw %struct.TupleHashEntryData, ptr %40, i32 0, i32 0
  %42 = load ptr, ptr %41, align 8
  %43 = load ptr, ptr %5, align 8
  %44 = getelementptr inbounds nuw %struct.TupleHashTableData, ptr %43, i32 0, i32 8
  %45 = load ptr, ptr %44, align 8
  %46 = call ptr @ExecStoreMinimalTuple(ptr noundef %42, ptr noundef %45, i1 noundef zeroext false)
  %47 = load ptr, ptr %6, align 8
  %48 = load ptr, ptr %5, align 8
  %49 = getelementptr inbounds nuw %struct.TupleHashTableData, ptr %48, i32 0, i32 8
  %50 = load ptr, ptr %49, align 8
  %51 = load i32, ptr %8, align 4
  %52 = load ptr, ptr %9, align 8
  %53 = load ptr, ptr %7, align 8
  %54 = load ptr, ptr %5, align 8
  %55 = getelementptr inbounds nuw %struct.TupleHashTableData, ptr %54, i32 0, i32 5
  %56 = load ptr, ptr %55, align 8
  %57 = load ptr, ptr %5, align 8
  %58 = getelementptr inbounds nuw %struct.TupleHashTableData, ptr %57, i32 0, i32 7
  %59 = load ptr, ptr %58, align 8
  %60 = call zeroext i1 @execTuplesUnequal(ptr noundef %47, ptr noundef %50, i32 noundef %51, ptr noundef %52, ptr noundef %53, ptr noundef %56, ptr noundef %59)
  br i1 %60, label %62, label %61

61:                                               ; preds = %39
  store i1 true, ptr %4, align 1
  store i32 1, ptr %12, align 4
  br label %64

62:                                               ; preds = %39
  br label %22, !llvm.loop !22

63:                                               ; preds = %22
  store i1 false, ptr %4, align 1
  store i32 1, ptr %12, align 4
  br label %64

64:                                               ; preds = %63, %61
  call void @llvm.lifetime.end.p0(i64 8, ptr %11) #7
  call void @llvm.lifetime.end.p0(i64 12, ptr %10) #7
  call void @llvm.lifetime.end.p0(i64 8, ptr %9) #7
  call void @llvm.lifetime.end.p0(i64 4, ptr %8) #7
  %65 = load i1, ptr %4, align 1
  ret i1 %65
}