; Function Attrs: nounwind uwtable
define internal fastcc noundef zeroext i1 @findPartialMatch(ptr noundef readonly captures(none) %0, ptr noundef %1, ptr noundef %2) unnamed_addr #0 {
  %4 = alloca %struct.tuplehash_iterator, align 4
  %5 = getelementptr inbounds nuw i8, ptr %0, i64 8
  %6 = load i32, ptr %5, align 8
  %7 = getelementptr inbounds nuw i8, ptr %0, i64 16
  %8 = load ptr, ptr %7, align 8
  call void @llvm.lifetime.start.p0(i64 12, ptr nonnull %4) #8
  %9 = load ptr, ptr %0, align 8
  call void @tuplehash_start_iterate(ptr noundef %9, ptr noundef nonnull %4) #8
  %10 = load ptr, ptr %0, align 8
  %11 = call ptr @tuplehash_iterate(ptr noundef %10, ptr noundef nonnull %4) #8
  %.not22.not = icmp eq ptr %11, null
  br i1 %.not22.not, label %.loopexit, label %.lr.ph24

.lr.ph24:                                         ; preds = %3
  %.fr = freeze i32 %6
  %12 = getelementptr inbounds nuw i8, ptr %0, i64 64
  %13 = getelementptr inbounds nuw i8, ptr %0, i64 40
  %14 = getelementptr inbounds nuw i8, ptr %0, i64 56
  %15 = getelementptr inbounds nuw i8, ptr %1, i64 6
  %16 = getelementptr inbounds nuw i8, ptr %1, i64 32
  %17 = getelementptr inbounds nuw i8, ptr %1, i64 24
  %18 = add i32 %.fr, -1
  %19 = icmp sgt i32 %18, -1
  br i1 %19, label %.lr.ph24.split.us.preheader, label %.lr.ph24.split

.lr.ph24.split.us.preheader:                      ; preds = %.lr.ph24
  %20 = zext nneg i32 %18 to i64
  br label %.lr.ph24.split.us

.lr.ph24.split.us:                                ; preds = %.lr.ph24.split.us.preheader, %execTuplesUnequal.exit.us
  %21 = phi ptr [ %65, %execTuplesUnequal.exit.us ], [ %11, %.lr.ph24.split.us.preheader ]
  %22 = load volatile i32, ptr @InterruptPending, align 4
  %.not14.us = icmp eq i32 %22, 0
  br i1 %.not14.us, label %.lr.ph.us, label %23, !prof !4

23:                                               ; preds = %.lr.ph24.split.us
  call void @ProcessInterrupts() #8
  br label %.lr.ph.us

.lr.ph.us:                                        ; preds = %23, %.lr.ph24.split.us
  %24 = load ptr, ptr %21, align 8
  %25 = load ptr, ptr %12, align 8
  %26 = call ptr @ExecStoreMinimalTuple(ptr noundef %24, ptr noundef %25, i1 noundef zeroext false) #8
  %27 = load ptr, ptr %12, align 8
  %28 = load ptr, ptr %13, align 8
  %29 = load ptr, ptr %14, align 8
  call void @MemoryContextReset(ptr noundef %29) #8
  %30 = load ptr, ptr @CurrentMemoryContext, align 8
  store ptr %29, ptr @CurrentMemoryContext, align 8
  %31 = getelementptr inbounds nuw i8, ptr %27, i64 6
  %32 = getelementptr inbounds nuw i8, ptr %27, i64 32
  %33 = getelementptr inbounds nuw i8, ptr %27, i64 24
  br label %34

34:                                               ; preds = %.lr.ph.us, %.backedge.i.us
  %indvars.iv = phi i64 [ %20, %.lr.ph.us ], [ %indvars.iv.next, %.backedge.i.us ]
  %35 = getelementptr inbounds nuw i16, ptr %8, i64 %indvars.iv
  %36 = load i16, ptr %35, align 2
  %37 = sext i16 %36 to i32
  %38 = load i16, ptr %15, align 2
  %39 = icmp sgt i16 %36, %38
  br i1 %39, label %slot_getsomeattrs.exit.i.i.us, label %slot_getattr.exit.i.us

slot_getsomeattrs.exit.i.i.us:                    ; preds = %34
  call void @slot_getsomeattrs_int(ptr noundef nonnull %1, i32 noundef range(i32 -32767, -2147483648) %37) #8
  br label %slot_getattr.exit.i.us

slot_getattr.exit.i.us:                           ; preds = %slot_getsomeattrs.exit.i.i.us, %34
  %40 = load ptr, ptr %16, align 8
  %41 = add nsw i32 %37, -1
  %42 = sext i32 %41 to i64
  %43 = getelementptr inbounds i8, ptr %40, i64 %42
  %44 = load i8, ptr %43, align 1, !range !5, !noundef !6
  %45 = load ptr, ptr %17, align 8
  %46 = getelementptr inbounds i64, ptr %45, i64 %42
  %47 = load i64, ptr %46, align 8
  %48 = trunc nuw i8 %44 to i1
  br i1 %48, label %.backedge.i.us, label %49, !llvm.loop !16

49:                                               ; preds = %slot_getattr.exit.i.us
  %50 = load i16, ptr %31, align 2
  %51 = icmp sgt i16 %36, %50
  br i1 %51, label %slot_getsomeattrs.exit.i21.i.us, label %slot_getattr.exit22.i.us

slot_getsomeattrs.exit.i21.i.us:                  ; preds = %49
  call void @slot_getsomeattrs_int(ptr noundef nonnull %27, i32 noundef range(i32 -32767, -2147483648) %37) #8
  br label %slot_getattr.exit22.i.us

slot_getattr.exit22.i.us:                         ; preds = %slot_getsomeattrs.exit.i21.i.us, %49
  %52 = load ptr, ptr %32, align 8
  %53 = getelementptr inbounds i8, ptr %52, i64 %42
  %54 = load i8, ptr %53, align 1, !range !5, !noundef !6
  %55 = trunc nuw i8 %54 to i1
  br i1 %55, label %.backedge.i.us, label %56, !llvm.loop !16

56:                                               ; preds = %slot_getattr.exit22.i.us
  %57 = load ptr, ptr %33, align 8
  %58 = getelementptr inbounds i64, ptr %57, i64 %42
  %59 = load i64, ptr %58, align 8
  %60 = getelementptr inbounds nuw %struct.FmgrInfo, ptr %2, i64 %indvars.iv
  %61 = getelementptr inbounds nuw i32, ptr %28, i64 %indvars.iv
  %62 = load i32, ptr %61, align 4
  %63 = call i64 @FunctionCall2Coll(ptr noundef %60, i32 noundef %62, i64 noundef %47, i64 noundef %59) #8
  %.not.i.us = icmp eq i64 %63, 0
  br i1 %.not.i.us, label %execTuplesUnequal.exit.us, label %.backedge.i.us

execTuplesUnequal.exit.us:                        ; preds = %56
  store ptr %30, ptr @CurrentMemoryContext, align 8
  %64 = load ptr, ptr %0, align 8
  %65 = call ptr @tuplehash_iterate(ptr noundef %64, ptr noundef nonnull %4) #8
  %.not.us.not = icmp eq ptr %65, null
  br i1 %.not.us.not, label %.loopexit, label %.lr.ph24.split.us, !llvm.loop !17

.backedge.i.us:                                   ; preds = %56, %slot_getattr.exit22.i.us, %slot_getattr.exit.i.us
  %indvars.iv.next = add nsw i64 %indvars.iv, -1
  %66 = and i64 %indvars.iv.next, 2147483648
  %67 = icmp eq i64 %66, 0
  br i1 %67, label %34, label %execTuplesUnequal.exit.thread

.lr.ph24.split:                                   ; preds = %.lr.ph24
  %68 = load volatile i32, ptr @InterruptPending, align 4
  %.not14 = icmp eq i32 %68, 0
  br i1 %.not14, label %.execTuplesUnequal.exit.thread_crit_edge, label %69, !prof !4

69:                                               ; preds = %.lr.ph24.split
  call void @ProcessInterrupts() #8
  br label %.execTuplesUnequal.exit.thread_crit_edge

.execTuplesUnequal.exit.thread_crit_edge:         ; preds = %69, %.lr.ph24.split
  %70 = load ptr, ptr %11, align 8
  %71 = load ptr, ptr %12, align 8
  %72 = call ptr @ExecStoreMinimalTuple(ptr noundef %70, ptr noundef %71, i1 noundef zeroext false) #8
  %73 = load ptr, ptr %14, align 8
  call void @MemoryContextReset(ptr noundef %73) #8
  %74 = load ptr, ptr @CurrentMemoryContext, align 8
  br label %execTuplesUnequal.exit.thread

execTuplesUnequal.exit.thread:                    ; preds = %.backedge.i.us, %.execTuplesUnequal.exit.thread_crit_edge
  %.lcssa = phi ptr [ %74, %.execTuplesUnequal.exit.thread_crit_edge ], [ %30, %.backedge.i.us ]
  store ptr %.lcssa, ptr @CurrentMemoryContext, align 8
  br label %.loopexit

.loopexit:                                        ; preds = %execTuplesUnequal.exit.us, %3, %execTuplesUnequal.exit.thread
  %.not16 = phi i1 [ true, %execTuplesUnequal.exit.thread ], [ false, %3 ], [ false, %execTuplesUnequal.exit.us ]
  call void @llvm.lifetime.end.p0(i64 12, ptr nonnull %4) #8
  ret i1 %.not16
}